target datalayout = "e-m:e-p270:32:32-p271:32:32-p272:64:64-i64:64-i128:128-f80:128-n8:16:32:64-S128"
target triple = "x86_64-pc-linux-gnu"

%struct.AVCodecContext = type { ptr, i32, i32, ptr, i32, i32, ptr, ptr, ptr, i64, i32, i32, ptr, i32, %struct.AVRational, %struct.AVRational, %struct.AVRational, i32, i32, i32, i32, i32, %struct.AVRational, i32, i32, i32, i32, i32, i32, i32, i32, i32, i32, i32, ptr, ptr, i32, float, float, float, float, float, float, float, float, float, i32, i32, i32, i32, i32, i32, i32, i32, i32, i32, i32, i32, ptr, ptr, ptr, i32, i32, i32, i32, i32, i32, i32, i32, i32, i32, %struct.AVChannelLayout, i32, i32, i32, i32, i32, i32, i32, i32, ptr, i32, i32, i32, float, float, i32, i32, i32, i32, i32, ptr, i64, i64, float, float, i32, i32, ptr, ptr, i32, i32, i32, i32, i32, ptr, ptr, ptr, ptr, i32, i32, [8 x i64], i32, i32, i32, i32, i32, i32, i32, ptr, ptr, i32, i32, i32, i32, i32, i32, i32, i32, i32, i32, ptr, ptr, i32, i32, ptr, ptr, ptr, ptr, i32, i32, i64, i32, i32, i64, ptr, i64, ptr, i32, ptr, i32 }
%struct.AVRational = type { i32, i32 }
%struct.AVChannelLayout = type { i32, i32, %union.anon.0, ptr }
%union.anon.0 = type { i64 }
%struct.DiracContext = type { ptr, %struct.MpegvideoEncDSPContext, %struct.VideoDSPContext, %struct.DiracDSPContext, %struct.DiracVersionInfo, %struct.GetBitContext, %struct.AVDiracSeqHeader, i32, i64, [3 x %struct.Plane], i32, i32, i32, i32, i32, i32, i32, i32, i32, i32, i32, i32, i32, i32, i32, i32, i32, i32, i32, ptr, i32, i32, ptr, i32, [6 x %struct.anon], %struct.anon.1, %struct.anon.2, [2 x %struct.anon.3], i8, [2 x i16], i32, i32, i32, i32, i32, ptr, ptr, [4 x ptr], ptr, ptr, ptr, i32, [12 x i8], [3 x [1024 x i8]], [4 x ptr], [4 x ptr], ptr, ptr, ptr, ptr, [2 x ptr], [9 x ptr], [6 x ptr], [14 x %struct.DiracFrame], [8 x i8] }
%struct.MpegvideoEncDSPContext = type { ptr, ptr, ptr, ptr, [4 x ptr], ptr }
%struct.VideoDSPContext = type { ptr, ptr }
%struct.DiracDSPContext = type { ptr, [3 x [4 x ptr]], [3 x [4 x ptr]], [3 x ptr], ptr, ptr, [3 x ptr], [4 x ptr], [3 x ptr], [3 x ptr] }
%struct.DiracVersionInfo = type { i32, i32 }
%struct.GetBitContext = type { ptr, ptr, i32, i32, i32 }
%struct.AVDiracSeqHeader = type { i32, i32, i8, i8, i8, i8, i8, i16, i16, i16, i16, i8, i8, i32, i32, %struct.AVRational, %struct.AVRational, i32, i32, i32, i32, i32, %struct.DiracVersionInfo, i32 }
%struct.Plane = type { %struct.DWTPlane, i32, i32, i64, i8, i8, i8, i8, i8, i8, [5 x [4 x %struct.SubBand]] }
%struct.DWTPlane = type { i32, i32, i32, ptr, ptr, ptr }
%struct.SubBand = type { i32, i32, i32, i32, i32, i32, i32, ptr, ptr, i32, ptr }
%struct.anon = type { i32, i32 }
%struct.anon.1 = type { %struct.AVRational, [5 x [4 x i8]] }
%struct.anon.2 = type { i32, i64 }
%struct.anon.3 = type { [2 x i32], [2 x [2 x i32]], [2 x i32], i32, i32 }
%struct.DiracFrame = type { ptr, [3 x i32], [3 x [4 x ptr]], [3 x [4 x ptr]], i32, i32 }

; Function Attrs: cold nounwind optsize uwtable
define internal i32 @dirac_decode_end(ptr noundef %0) #0 {
  %2 = alloca ptr, align 8
  %3 = alloca ptr, align 8
  %4 = alloca i32, align 4
  store ptr %0, ptr %2, align 8, !tbaa !4
  call void @llvm.lifetime.start.p0(i64 8, ptr %3) #12
  %5 = load ptr, ptr %2, align 8, !tbaa !4
  %6 = getelementptr inbounds nuw %struct.AVCodecContext, ptr %5, i32 0, i32 6
  %7 = load ptr, ptr %6, align 8, !tbaa !9
  store ptr %7, ptr %3, align 8, !tbaa !29
  call void @llvm.lifetime.start.p0(i64 4, ptr %4) #12
  %8 = load ptr, ptr %3, align 8, !tbaa !29
  %9 = getelementptr inbounds nuw %struct.DiracContext, ptr %8, i32 0, i32 63
  %10 = getelementptr inbounds [14 x %struct.DiracFrame], ptr %9, i64 0, i64 13
  %11 = getelementptr inbounds nuw %struct.DiracFrame, ptr %10, i32 0, i32 0
  %12 = load ptr, ptr %11, align 8, !tbaa !48
  %13 = icmp ne ptr %12, null
  br i1 %13, label %14, label %16

14:                                               ; preds = %1
  %15 = load ptr, ptr %3, align 8, !tbaa !29
  call void @free_sequence_buffers(ptr noundef %15) #14
  br label %16

16:                                               ; preds = %14, %1
  store i32 0, ptr %4, align 4, !tbaa !47
  br label %17

17:                                               ; preds = %27, %16
  %18 = load i32, ptr %4, align 4, !tbaa !47
  %19 = icmp slt i32 %18, 14
  br i1 %19, label %20, label %30

20:                                               ; preds = %17
  %21 = load ptr, ptr %3, align 8, !tbaa !29
  %22 = getelementptr inbounds nuw %struct.DiracContext, ptr %21, i32 0, i32 63
  %23 = load i32, ptr %4, align 4, !tbaa !47
  %24 = sext i32 %23 to i64
  %25 = getelementptr inbounds [14 x %struct.DiracFrame], ptr %22, i64 0, i64 %24
  %26 = getelementptr inbounds nuw %struct.DiracFrame, ptr %25, i32 0, i32 0
  call void @av_frame_free(ptr noundef %26)
  br label %27

27:                                               ; preds = %20
  %28 = load i32, ptr %4, align 4, !tbaa !47
  %29 = add nsw i32 %28, 1
  store i32 %29, ptr %4, align 4, !tbaa !47
  br label %17, !llvm.loop !69

30:                                               ; preds = %17
  %31 = load ptr, ptr %3, align 8, !tbaa !29
  %32 = getelementptr inbounds nuw %struct.DiracContext, ptr %31, i32 0, i32 29
  call void @av_freep(ptr noundef %32)
  %33 = load ptr, ptr %3, align 8, !tbaa !29
  %34 = getelementptr inbounds nuw %struct.DiracContext, ptr %33, i32 0, i32 32
  call void @av_freep(ptr noundef %34)
  call void @llvm.lifetime.end.p0(i64 4, ptr %4) #12
  call void @llvm.lifetime.end.p0(i64 8, ptr %3) #12
  ret i32 0
}