; Function Attrs: cold nounwind optsize uwtable
define internal noundef i32 @dirac_decode_end(ptr noundef readonly captures(none) %0) #0 {
  %2 = getelementptr inbounds nuw i8, ptr %0, i64 32
  %3 = load ptr, ptr %2, align 8, !tbaa !4
  %4 = getelementptr inbounds nuw i8, ptr %3, i64 8312
  %5 = getelementptr inbounds nuw i8, ptr %3, i64 11224
  %6 = load ptr, ptr %5, align 8, !tbaa !46
  %.not = icmp eq ptr %6, null
  br i1 %.not, label %.preheader, label %7

7:                                                ; preds = %1
  tail call fastcc void @free_sequence_buffers(ptr noundef nonnull %3) #14
  br label %.preheader

.preheader:                                       ; preds = %7, %1
  br label %8

8:                                                ; preds = %.preheader, %8
  %indvars.iv = phi i64 [ %indvars.iv.next, %8 ], [ 0, %.preheader ]
  %9 = getelementptr inbounds nuw [14 x %struct.DiracFrame], ptr %4, i64 0, i64 %indvars.iv
  tail call void @av_frame_free(ptr noundef nonnull %9) #13
  %indvars.iv.next = add nuw nsw i64 %indvars.iv, 1
  %exitcond.not = icmp eq i64 %indvars.iv.next, 14
  br i1 %exitcond.not, label %10, label %8, !llvm.loop !230

10:                                               ; preds = %8
  %11 = getelementptr inbounds nuw i8, ptr %3, i64 4688
  tail call void @av_freep(ptr noundef nonnull %11) #13
  %12 = getelementptr inbounds nuw i8, ptr %3, i64 4704
  tail call void @av_freep(ptr noundef nonnull %12) #13
  ret i32 0
}